; Function Attrs: nounwind uwtable
define internal i32 @SDL_snprintf_DEFAULT(ptr noundef %0, i64 noundef %1, ptr noundef %2, ...) #0 {
  %4 = alloca [1 x %struct.__va_list_tag], align 16
  call void @llvm.lifetime.start.p0(i64 24, ptr nonnull %4) #12
  tail call fastcc void @SDL_InitDynamicAPI()
  call void @llvm.va_start.p0(ptr nonnull %4)
  %5 = load ptr, ptr getelementptr inbounds nuw (i8, ptr @jump_table, i64 9272), align 8
  %6 = call i32 %5(ptr noundef %0, i64 noundef %1, ptr noundef %2, ptr noundef nonnull %4) #12
  call void @llvm.va_end.p0(ptr nonnull %4)
  call void @llvm.lifetime.end.p0(i64 24, ptr nonnull %4) #12
  ret i32 %6
}